target datalayout = "e-m:e-p270:32:32-p271:32:32-p272:64:64-i64:64-i128:128-f80:128-n8:16:32:64-S128"
target triple = "x86_64-pc-linux-gnu"

@id_slicewhen_enum = internal global i64 0, align 8
@id_slicewhen_inverted = internal global i64 0, align 8
@id_slicewhen_pred = internal global i64 0, align 8
@rb_cEnumerator = external global i64, align 8

; Function Attrs: nounwind sspstrong uwtable
define internal i64 @enum_chunk_while(i64 noundef %0) #0 {
  %2 = alloca i64, align 8
  %3 = alloca i64, align 8
  %4 = alloca i64, align 8
  store i64 %0, ptr %2, align 8, !tbaa !14
  call void @llvm.lifetime.start.p0(i64 8, ptr %3) #22
  call void @llvm.lifetime.start.p0(i64 8, ptr %4) #22
  %5 = call i64 @rb_block_proc()
  store i64 %5, ptr %4, align 8, !tbaa !14
  %6 = load i64, ptr @rb_cEnumerator, align 8, !tbaa !14
  %7 = call i64 @rb_obj_alloc(i64 noundef %6)
  store i64 %7, ptr %3, align 8, !tbaa !14
  %8 = load i64, ptr %3, align 8, !tbaa !14
  %9 = load i64, ptr @id_slicewhen_enum, align 8, !tbaa !14
  %10 = load i64, ptr %2, align 8, !tbaa !14
  %11 = call i64 @rb_ivar_set(i64 noundef %8, i64 noundef %9, i64 noundef %10)
  %12 = load i64, ptr %3, align 8, !tbaa !14
  %13 = load i64, ptr @id_slicewhen_pred, align 8, !tbaa !14
  %14 = load i64, ptr %4, align 8, !tbaa !14
  %15 = call i64 @rb_ivar_set(i64 noundef %12, i64 noundef %13, i64 noundef %14)
  %16 = load i64, ptr %3, align 8, !tbaa !14
  %17 = load i64, ptr @id_slicewhen_inverted, align 8, !tbaa !14
  %18 = call i64 @rb_ivar_set(i64 noundef %16, i64 noundef %17, i64 noundef 20)
  %19 = load i64, ptr %3, align 8, !tbaa !14
  %20 = load i64, ptr %3, align 8, !tbaa !14
  %21 = call i64 @rb_block_call(i64 noundef %19, i64 noundef 3169, i32 noundef 0, ptr noundef null, ptr noundef @slicewhen_i, i64 noundef %20)
  %22 = load i64, ptr %3, align 8, !tbaa !14
  call void @llvm.lifetime.end.p0(i64 8, ptr %4) #22
  call void @llvm.lifetime.end.p0(i64 8, ptr %3) #22
  ret i64 %22
}