; Function Attrs: nounwind sspstrong uwtable
define internal noundef i64 @enum_chunk_while(i64 noundef %0) #0 {
  %2 = tail call i64 @rb_block_proc() #14
  %3 = load i64, ptr @rb_cEnumerator, align 8, !tbaa !7
  %4 = tail call i64 @rb_obj_alloc(i64 noundef %3) #14
  %5 = load i64, ptr @id_slicewhen_enum, align 8, !tbaa !7
  %6 = tail call i64 @rb_ivar_set(i64 noundef %4, i64 noundef %5, i64 noundef %0) #14
  %7 = load i64, ptr @id_slicewhen_pred, align 8, !tbaa !7
  %8 = tail call i64 @rb_ivar_set(i64 noundef %4, i64 noundef %7, i64 noundef %2) #14
  %9 = load i64, ptr @id_slicewhen_inverted, align 8, !tbaa !7
  %10 = tail call i64 @rb_ivar_set(i64 noundef %4, i64 noundef %9, i64 noundef 20) #14
  %11 = tail call i64 @rb_block_call(i64 noundef %4, i64 noundef 3169, i32 noundef 0, ptr noundef null, ptr noundef nonnull @slicewhen_i, i64 noundef %4) #14
  ret i64 %4
}